((dp0
(S'L5_TTPC2'
p1
S'L5_TTPC1'
p2
tp3
(lp4
I4
aI4
aI5
aI5
aI5
aI5
aI5
aI5
aI5
aI5
aI5
aI6
aI6
aI6
aI6
aI7
aI7
aI7
aI8
as(g2
g1
tp5
(lp6
I4
aI4
aI5
aI5
aI5
aI5
aI5
aI5
aI5
aI5
aI5
aI6
aI6
aI6
aI6
aI7
aI7
aI7
aI8
as(g1
S'L5_MC'
p7
tp8
(lp9
I6
aI8
aI9
aI11
as(g7
g2
tp10
(lp11
I9
aI10
aI14
aI15
as(S'L5_STPC'
p12
g12
tp13
(lp14
I1
aI2
aI3
aI4
aI4
aI4
aI4
aI4
aI4
aI5
aI5
aI5
aI5
aI6
as(S'L23_LBC'
p15
S'L23_SBC'
p16
tp17
(lp18
I7
aI10
aI20
as(g15
g15
tp19
(lp20
I7
aI10
aI20
as(g2
g7
tp21
(lp22
I6
aI8
aI9
aI11
as(g2
g2
tp23
(lp24
I4
aI4
aI5
aI5
aI5
aI5
aI5
aI5
aI5
aI5
aI5
aI6
aI6
aI6
aI6
aI7
aI7
aI7
aI8
as(S'L4_SS'
p25
S'L23_PC'
p26
tp27
(lp28
I5
aI5
aI5
aI4
aI4
aI5
aI5
aI5
aI5
aI4
aI4
aI4
aI4
as(g26
g26
tp29
(lp30
I2
aI2
aI3
aI3
aI3
aI3
aI3
aI4
as(S'L4_SP'
p31
g31
tp32
(lp33
I3
aI3
aI3
aI4
aI3
aI2
aI2
aI4
aI5
aI5
aI3
as(S'L4_SBC'
p34
S'L4_LBC'
p35
tp36
(lp37
I7
aI10
aI20
as(g16
g15
tp38
(lp39
I7
aI10
aI20
as(g35
g35
tp40
(lp41
I7
aI10
aI20
as(g35
g34
tp42
(lp43
I7
aI10
aI20
as(g7
g1
tp44
(lp45
I9
aI10
aI14
aI15
as(g16
g16
tp46
(lp47
I7
aI10
aI20
as(g1
g1
tp48
(lp49
I4
aI4
aI5
aI5
aI5
aI5
aI5
aI5
aI5
aI5
aI5
aI6
aI6
aI6
aI6
aI7
aI7
aI7
aI8
as(g34
g34
tp50
(lp51
I7
aI10
aI20
as(dp52
(S'L6_BTC'
p53
S'L6_TPC_L4'
p54
tp55
(I15
F7.1
I7
tp56
s(S'L23_LBC'
p57
S'L23_PC'
p58
tp59
(F14.5
I2
I4
tp60
s(g53
S'L6_TPC_L1'
p61
tp62
(I15
F7.1
I7
tp63
s(S'L4_PC'
p64
S'L4_SBC'
p65
tp66
(I3
I1
Fnan
tp67
s(S'L4_MC'
p68
g64
tp69
(F11.2
F5.5
I9
tp70
s(g58
S'L23_SBC'
p71
tp72
(I3
I1
Fnan
tp73
s(g54
g61
tp74
(F4.2
F0.8
Fnan
tp75
s(S'L5_BTC'
p76
S'L5_TTPC1'
p77
tp78
(I15
F7.1
I7
tp79
s(g71
g58
tp80
(F20.5
F10.5
I6
tp81
s(g58
g57
tp82
(F7.1
F3.1
I13
tp83
s(S'L23_BTC'
p84
g58
tp85
(I15
F7.1
I7
tp86
s(g76
S'L5_TTPC2'
p87
tp88
(I15
F7.1
I7
tp89
s(S'L4_NBC'
p90
g64
tp91
(F15.8
F4.1
I6
tp92
s(g58
S'L23_NBC'
p93
tp94
(F3.4
F1.5
I5
tp95
s(g65
g64
tp96
(F20.5
F10.5
I6
tp97
s(g64
S'L4_ChC'
p98
tp99
(F3.5
F1.5
Fnan
tp100
s(g93
g58
tp101
(F15.8
F4.1
I6
tp102
s(S'L4_LBC'
p103
g64
tp104
(F14.5
I2
I4
tp105
s(S'L4_BTC'
p106
g64
tp107
(I15
F7.1
I7
tp108
s(g64
g103
tp109
(F7.1
F3.1
I13
tp110
s(g61
g61
tp111
(F4.2
F0.8
Fnan
tp112
s(g61
g54
tp113
(F4.2
F0.8
Fnan
tp114
s(g54
g54
tp115
(F4.2
F0.8
Fnan
tp116
s(S'L23_MC'
p117
g58
tp118
(F11.2
F5.5
I9
tp119
s(g64
g90
tp120
(F3.4
F1.5
I5
tp121
stp122
.