((dp0
(S'L5_TPC:B'
p1
g1
tp2
(lp3
I4
aI4
aI5
aI5
aI5
aI5
aI5
aI5
aI5
aI5
aI5
aI6
aI6
aI6
aI6
aI7
aI7
aI7
aI8
as(S'L5_TTPC2'
p4
S'L5_MC'
p5
tp6
(lp7
I6
aI8
aI9
aI11
as(S'L4_SSC'
p8
S'L2_TPC:A'
p9
tp10
(lp11
I5
aI5
aI5
aI4
aI4
aI5
aI5
aI5
aI5
aI4
aI4
aI4
aI4
as(S'L5_STPC'
p12
g12
tp13
(lp14
I1
aI2
aI3
aI4
aI4
aI4
aI4
aI4
aI4
aI5
aI5
aI5
aI5
aI6
as(S'L23_LBC'
p15
S'L23_SBC'
p16
tp17
(lp18
I7
aI10
aI20
as(S'L4_LBC'
p19
g19
tp20
(lp21
I7
aI10
aI20
as(g16
g15
tp22
(lp23
I7
aI10
aI20
as(S'L2_TPC:B'
p24
g24
tp25
(lp26
I2
aI2
aI3
aI3
aI3
aI3
aI3
aI4
as(S'L5_TPC:A'
p27
g5
tp28
(lp29
I6
aI8
aI9
aI11
as(g5
S'L5_TTPC1'
p30
tp31
(lp32
I9
aI10
aI14
aI15
as(g8
S'L3_TPC:A'
p33
tp34
g11
s(S'L4_UPC'
p35
g35
tp36
(lp37
I3
aI3
aI3
aI4
aI3
aI2
aI2
aI4
aI5
aI5
aI3
as(g27
g1
tp38
(lp39
I4
aI4
aI5
aI5
aI5
aI5
aI5
aI5
aI5
aI5
aI5
aI6
aI6
aI6
aI6
aI7
aI7
aI7
aI8
as(g33
S'L3_TPC:B'
p40
tp41
g26
s(S'L4_SBC'
p42
g42
tp43
(lp44
I7
aI10
aI20
as(g8
g24
tp45
g11
s(g5
g4
tp46
(lp47
I9
aI10
aI14
aI15
as(g9
g40
tp48
g26
s(g1
g5
tp49
g7
s(g24
g40
tp50
g26
s(g40
g24
tp51
g26
s(g40
g33
tp52
g26
s(S'L5_TPC:C'
p53
g53
tp54
g14
s(g16
g16
tp55
(lp56
I7
aI10
aI20
as(g33
g9
tp57
g26
s(g9
g24
tp58
g26
s(g30
g4
tp59
g39
s(g27
g27
tp60
(lp61
I4
aI4
aI5
aI5
aI5
aI5
aI5
aI5
aI5
aI5
aI5
aI6
aI6
aI6
aI6
aI7
aI7
aI7
aI8
as(g33
g33
tp62
g26
s(g30
g5
tp63
g29
s(g24
g33
tp64
g26
s(g9
g9
tp65
g26
s(S'L4_SS'
p66
S'L23_PC'
p67
tp68
g11
s(g67
g67
tp69
g26
s(g40
g40
tp70
g26
s(g42
g19
tp71
(lp72
I7
aI10
aI20
as(g5
g1
tp73
g47
s(g40
g9
tp74
g26
s(g8
g40
tp75
g11
s(g33
g24
tp76
g26
s(g4
g30
tp77
(lp78
I4
aI4
aI5
aI5
aI5
aI5
aI5
aI5
aI5
aI5
aI5
aI6
aI6
aI6
aI6
aI7
aI7
aI7
aI8
as(g24
g9
tp79
g26
s(g15
g15
tp80
(lp81
I7
aI10
aI20
as(g1
g27
tp82
g78
s(g30
g30
tp83
g61
s(S'L4_SP'
p84
g84
tp85
g37
s(g9
g33
tp86
g26
s(g19
g42
tp87
(lp88
I7
aI10
aI20
as(g4
g4
tp89
g3
s(g5
g27
tp90
g32
s(dp91
(S'L4_TPC'
p92
S'L4_SBC'
p93
tp94
(I3
I1
Fnan
tp95
s(g92
S'L4_LBC'
p96
tp97
(F7.1
F3.1
I13
tp98
s(S'L6_BTC'
p99
S'L6_TPC_L4'
p100
tp101
(I15
F7.1
I7
tp102
s(S'L23_NBC'
p103
g33
tp104
(F15.8
F4.1
I6
tp105
s(g24
g103
tp106
(F3.4
F1.5
I5
tp107
s(g40
g103
tp108
g107
s(S'L23_BTC'
p109
g40
tp110
(I15
F7.1
I7
tp111
s(S'L23_LBC'
p112
S'L23_PC'
p113
tp114
(F14.5
I2
I4
tp115
s(g112
g24
tp116
g115
s(g99
S'L6_TPC:C'
p117
tp118
g102
s(g40
S'L23_SBC'
p119
tp120
(I3
I1
Fnan
tp121
s(g103
g40
tp122
g105
s(g117
S'L6_TPC:A'
p123
tp124
(F4.2
F0.8
Fnan
tp125
s(g99
S'L6_TPC_L1'
p126
tp127
(I15
F7.1
I7
tp128
s(g119
g33
tp129
(F20.5
F10.5
I6
tp130
s(S'L4_PC'
p131
g93
tp132
g95
s(S'L4_MC'
p133
g131
tp134
(F11.2
F5.5
I9
tp135
s(g113
g119
tp136
g121
s(g100
g126
tp137
g125
s(g103
g24
tp138
g105
s(S'L23_MC'
p139
g33
tp140
(F11.2
F5.5
I9
tp141
s(S'L5_BTC'
p142
g27
tp143
(I15
F7.1
I7
tp144
s(g142
S'L5_TTPC1'
p145
tp146
g144
s(g123
g117
tp147
(F4.2
F0.8
Fnan
tp148
s(g139
g24
tp149
g141
s(g133
g92
tp150
g135
s(g119
g113
tp151
g130
s(g40
g112
tp152
(F7.1
F3.1
I13
tp153
s(g112
g33
tp154
g115
s(g93
g92
tp155
(F20.5
F10.5
I6
tp156
s(g119
g9
tp157
g130
s(g119
g40
tp158
g130
s(g113
g112
tp159
g153
s(g142
g1
tp160
(I15
F7.1
I7
tp161
s(g109
g113
tp162
g111
s(g103
g9
tp163
g105
s(g142
S'L5_TTPC2'
p164
tp165
g161
s(g109
g9
tp166
g111
s(g99
g123
tp167
g128
s(S'L4_BTC'
p168
g92
tp169
(I15
F7.1
I7
tp170
s(S'L4_NBC'
p171
g131
tp172
(F15.8
F4.1
I6
tp173
s(g113
g103
tp174
g107
s(g9
g112
tp175
g153
s(g117
g117
tp176
(F4.2
F0.8
Fnan
tp177
s(g112
g9
tp178
g115
s(g93
g131
tp179
g156
s(g33
g119
tp180
g121
s(g131
S'L4_ChC'
p181
tp182
(F3.5
F1.5
Fnan
tp183
s(g112
g40
tp184
g115
s(g33
g112
tp185
g153
s(g103
g113
tp186
g105
s(g139
g9
tp187
g141
s(g96
g131
tp188
(F14.5
I2
I4
tp189
s(g92
g171
tp190
(F3.4
F1.5
I5
tp191
s(g139
g40
tp192
g141
s(g9
g119
tp193
g121
s(g168
g131
tp194
g170
s(g131
g96
tp195
g98
s(g123
g123
tp196
(F4.2
F0.8
Fnan
tp197
s(g92
S'L4_CHC'
p198
tp199
g183
s(g109
g24
tp200
g111
s(g109
g33
tp201
g111
s(g126
g126
tp202
g197
s(g33
g103
tp203
g107
s(g96
g92
tp204
g189
s(g24
g119
tp205
g121
s(g131
g171
tp206
g191
s(g119
g24
tp207
g130
s(g100
g100
tp208
g177
s(g24
g112
tp209
g153
s(g139
g113
tp210
g141
s(g171
g92
tp211
g173
s(g9
g103
tp212
g107
s(g126
g100
tp213
g148
stp214
.