(dp0
(S'L4_SSC'
p1
S'L3_TPC:A'
p2
tp3
(F0.03
Fnan
I64
tp4
s(g1
S'L2_TPC:A'
p5
tp6
g4
s(S'L5_STPC'
p7
g7
tp8
(F0.03
Fnan
I40
tp9
s(S'L2_TPC:B'
p10
g10
tp11
(F0.055
Fnan
I61
tp12
s(S'L6_TPC:C'
p13
S'L6_TPC:A'
p14
tp15
(F0.039
Fnan
I4
tp16
s(g2
S'L3_TPC:B'
p17
tp18
g12
s(S'L4_UPC'
p19
g19
tp20
(F0.07
Fnan
I14
tp21
s(S'L5_MC'
p22
S'L5_TPC:B'
p23
tp24
(F0.33
Fnan
I16
tp25
s(g10
g17
tp26
g12
s(g17
g2
tp27
g12
s(S'L5_TTPC2'
p28
S'L5_TTPC1'
p29
tp30
(F0.12
Fnan
I484
tp31
s(g29
g28
tp32
(F0.12
Fnan
I484
tp33
s(g2
g2
tp34
g12
s(S'L4_SS'
p35
S'L23_PC'
p36
tp37
g4
s(g13
g13
tp38
(F0.039
Fnan
I4
tp39
s(g2
g10
tp40
g12
s(g5
g10
tp41
g12
s(g29
g29
tp42
(F0.12
Fnan
I484
tp43
s(S'L6_TPC_L4'
p44
g44
tp45
g39
s(g5
g2
tp46
g12
s(g22
g28
tp47
g25
s(g23
g23
tp48
(F0.12
Fnan
I484
tp49
s(g22
g29
tp50
(F0.33
Fnan
I16
tp51
s(S'L5_TPC:A'
p52
g23
tp53
g33
s(g44
S'L6_TPC_L1'
p54
tp55
g16
s(g1
g10
tp56
g4
s(g5
g17
tp57
g12
s(g14
g13
tp58
(F0.039
Fnan
I4
tp59
s(g17
g10
tp60
g12
s(S'L5_TPC:C'
p61
g61
tp62
g9
s(S'L4_SP'
p63
g63
tp64
g21
s(g2
g5
tp65
g12
s(g52
g52
tp66
g43
s(g10
g2
tp67
g12
s(g36
g36
tp68
g12
s(g17
g17
tp69
g12
s(g17
g5
tp70
g12
s(g1
g17
tp71
g4
s(g10
g5
tp72
g12
s(g14
g14
tp73
(F0.039
Fnan
I4
tp74
s(g23
g52
tp75
g31
s(g54
g54
tp76
g74
s(g28
g28
tp77
g49
s(g54
g44
tp78
g59
s(g5
g5
tp79
g12
s(g22
g52
tp80
g51
s.